; Function Attrs: nofree nounwind memory(read, inaccessiblemem: none) uwtable
define range(i32 -2147483648, 2147483647) i32 @Saig_TsiComputePrefix(ptr noundef readonly captures(none) %0, ptr noundef readonly captures(none) %1, i32 noundef %2) local_unnamed_addr #9 {
  %4 = getelementptr inbounds nuw i8, ptr %0, i64 64
  %5 = load i32, ptr %4, align 8, !tbaa !34
  %6 = icmp sgt i32 %2, 0
  br i1 %6, label %.lr.ph.preheader.i, label %Saig_TsiStateHash.exit

.lr.ph.preheader.i:                               ; preds = %3
  %wide.trip.count.i = zext nneg i32 %2 to i64
  br label %.lr.ph.i

.lr.ph.i:                                         ; preds = %.lr.ph.i, %.lr.ph.preheader.i
  %indvars.iv.i = phi i64 [ 0, %.lr.ph.preheader.i ], [ %indvars.iv.next.i, %.lr.ph.i ]
  %.089.i = phi i32 [ 0, %.lr.ph.preheader.i ], [ %13, %.lr.ph.i ]
  %7 = getelementptr inbounds nuw i32, ptr %1, i64 %indvars.iv.i
  %8 = load i32, ptr %7, align 4, !tbaa !39
  %9 = and i64 %indvars.iv.i, 127
  %10 = getelementptr inbounds nuw [128 x i32], ptr @Saig_TsiStateHash.s_FPrimes, i64 0, i64 %9
  %11 = load i32, ptr %10, align 4, !tbaa !39
  %12 = mul i32 %11, %8
  %13 = xor i32 %12, %.089.i
  %indvars.iv.next.i = add nuw nsw i64 %indvars.iv.i, 1
  %exitcond.not.i = icmp eq i64 %indvars.iv.next.i, %wide.trip.count.i
  br i1 %exitcond.not.i, label %Saig_TsiStateHash.exit, label %.lr.ph.i, !llvm.loop !40

Saig_TsiStateHash.exit:                           ; preds = %.lr.ph.i, %3
  %.08.lcssa.i = phi i32 [ 0, %3 ], [ %13, %.lr.ph.i ]
  %14 = urem i32 %.08.lcssa.i, %5
  %15 = getelementptr inbounds nuw i8, ptr %0, i64 56
  %16 = load ptr, ptr %15, align 8, !tbaa !35
  %17 = sext i32 %14 to i64
  %18 = getelementptr inbounds ptr, ptr %16, i64 %17
  %.02025 = load ptr, ptr %18, align 8, !tbaa !52
  %.not26 = icmp eq ptr %.02025, null
  br i1 %.not26, label %.critedge, label %.lr.ph

.lr.ph:                                           ; preds = %Saig_TsiStateHash.exit
  %19 = sext i32 %2 to i64
  %20 = shl nsw i64 %19, 2
  br label %21

21:                                               ; preds = %.lr.ph, %32
  %.02027 = phi ptr [ %.02025, %.lr.ph ], [ %.020, %32 ]
  %bcmp = tail call i32 @bcmp(ptr nonnull %.02027, ptr %1, i64 %20)
  %.not21 = icmp eq i32 %bcmp, 0
  br i1 %.not21, label %.preheader, label %32

.preheader:                                       ; preds = %21
  %22 = getelementptr inbounds nuw i8, ptr %0, i64 16
  %23 = load ptr, ptr %22, align 8, !tbaa !29
  %24 = getelementptr i8, ptr %23, i64 4
  %.val = load i32, ptr %24, align 4, !tbaa !25
  %25 = icmp sgt i32 %.val, 0
  br i1 %25, label %.lr.ph29, label %.critedge

.lr.ph29:                                         ; preds = %.preheader
  %26 = getelementptr i8, ptr %23, i64 8
  %.val22 = load ptr, ptr %26, align 8, !tbaa !28
  %wide.trip.count = zext nneg i32 %.val to i64
  br label %27

27:                                               ; preds = %.lr.ph29, %31
  %indvars.iv = phi i64 [ 0, %.lr.ph29 ], [ %indvars.iv.next, %31 ]
  %28 = getelementptr inbounds nuw ptr, ptr %.val22, i64 %indvars.iv
  %29 = load ptr, ptr %28, align 8, !tbaa !43
  %30 = icmp eq ptr %29, %.02027
  br i1 %30, label %.critedge.loopexit.split.loop.exit37, label %31

31:                                               ; preds = %27
  %indvars.iv.next = add nuw nsw i64 %indvars.iv, 1
  %exitcond.not = icmp eq i64 %indvars.iv.next, %wide.trip.count
  br i1 %exitcond.not, label %.critedge, label %27, !llvm.loop !53

32:                                               ; preds = %21
  %33 = getelementptr inbounds i32, ptr %.02027, i64 %19
  %.020 = load ptr, ptr %33, align 8, !tbaa !52
  %.not = icmp eq ptr %.020, null
  br i1 %.not, label %.critedge, label %21, !llvm.loop !54

.critedge.loopexit.split.loop.exit37:             ; preds = %27
  %34 = trunc nuw nsw i64 %indvars.iv to i32
  br label %.critedge

.critedge:                                        ; preds = %32, %31, %.critedge.loopexit.split.loop.exit37, %Saig_TsiStateHash.exit, %.preheader
  %.019 = phi i32 [ -1, %.preheader ], [ -1, %Saig_TsiStateHash.exit ], [ %34, %.critedge.loopexit.split.loop.exit37 ], [ -1, %31 ], [ -1, %32 ]
  ret i32 %.019
}